(ideluge.core.torrentmanager
TorrentManagerState
p1
(dp2
S'torrents'
p3
(lp4
(ideluge.core.torrentmanager
TorrentState
p5
(dp6
S'max_download_speed'
p7
F-1
sS'move_completed_path'
p8
S'/Users/glen/Downloads'
p9
sS'paused'
p10
I00
sS'max_upload_slots'
p11
I-1
sS'prioritize_first_last'
p12
I00
sS'max_connections'
p13
I-1
sS'compact'
p14
I00
sS'queue'
p15
I0
sS'file_priorities'
p16
(lp17
I1
asS'filename'
p18
S'2d43fc60af19801df1587a1a6f31e00f.torrent'
p19
sS'max_upload_speed'
p20
F-1
sS'save_path'
p21
S'/Users/glen/Downloads'
p22
sS'time_added'
p23
F1488458886.315567
sS'total_uploaded'
p24
L0L
sS'torrent_id'
p25
S'2b0bcae3d5713311e2ec814c3204679d2189b1ea'
p26
sS'auto_managed'
p27
I01
sS'stop_at_ratio'
p28
I00
sS'move_completed'
p29
I00
sS'trackers'
p30
(lp31
(dp32
S'send_stats'
p33
I01
sS'fails'
p34
I0
sS'verified'
p35
I00
sS'url'
p36
S'http://109.235.50.166:2710/announce'
p37
sS'fail_limit'
p38
I0
sS'complete_sent'
p39
I00
sS'source'
p40
I1
sS'start_sent'
p41
I00
sS'tier'
p42
I0
sS'updating'
p43
I00
sasS'magnet'
p44
NsS'remove_at_ratio'
p45
I00
sS'stop_ratio'
p46
F2
sS'is_finished'
p47
I00
sba(ideluge.core.torrentmanager
TorrentState
p48
(dp49
g7
F-1
sg8
S'/Users/glen/Downloads'
p50
sg10
I00
sg11
I-1
sg12
I00
sg13
I-1
sg14
I00
sg15
I-1
sg16
(lp51
I1
aI1
aI1
aI1
aI1
aI1
aI1
aI1
aI1
aI1
aI1
aI1
asg18
S'Nine_Inch_Nails_-_The_Slip_-_Flac.torrent'
p52
sg20
F-1
sg21
S'/Users/glen/Music/0Purchased/NiN'
p53
sg23
F1460252588.9524209
sg24
L26400307L
sg25
S'f4e14f1abe29bc991575a318c4f29d7ac4187757'
p54
sg27
I01
sg28
I00
sg29
I00
sg30
(lp55
(dp56
S'send_stats'
p57
I01
sS'fails'
p58
I0
sS'verified'
p59
I00
sS'url'
p60
S'http://tracker.nin.com:2710/00000005997ad74cc8301eb1374e0839/announce'
p61
sS'fail_limit'
p62
I0
sS'complete_sent'
p63
I00
sS'source'
p64
I1
sS'start_sent'
p65
I00
sS'tier'
p66
I0
sS'updating'
p67
I00
sasg44
Nsg45
I00
sg46
F2
sg47
I01
sba(ideluge.core.torrentmanager
TorrentState
p68
(dp69
g7
F-1
sg8
S'/Users/glen/Downloads'
p70
sg10
I00
sg11
I-1
sg12
I00
sg13
I-1
sg14
I00
sg15
I-1
sg16
(lp71
I1
asg18
S'Mac.OS.X.Yosemite.10.10.5.(14F27).InstallESD.torrent'
p72
sg20
F-1
sg21
S'/Users/Shared/software/OSX Yosemite'
p73
sg23
F1461035441.044956
sg24
L3660609611L
sg25
S'7e4410065aecbd52c9e4dd8489e0d61a3c303fb0'
p74
sg27
I01
sg28
I00
sg29
I00
sg30
(lp75
(dp76
S'send_stats'
p77
I01
sS'fails'
p78
I0
sS'verified'
p79
I00
sS'url'
p80
S'udp://open.demonii.com:1337/announce'
p81
sS'fail_limit'
p82
I0
sS'complete_sent'
p83
I00
sS'source'
p84
I1
sS'start_sent'
p85
I00
sS'tier'
p86
I0
sS'updating'
p87
I00
sa(dp88
S'send_stats'
p89
I01
sS'fails'
p90
I0
sS'verified'
p91
I00
sS'url'
p92
S'udp://tracker.publicbt.com:80/announce'
p93
sS'fail_limit'
p94
I0
sS'complete_sent'
p95
I00
sS'source'
p96
I1
sS'start_sent'
p97
I00
sS'tier'
p98
I1
sS'updating'
p99
I00
sa(dp100
S'send_stats'
p101
I01
sS'fails'
p102
I0
sS'verified'
p103
I00
sS'url'
p104
S'udp://tracker.openbittorrent.com:80/announce'
p105
sS'fail_limit'
p106
I0
sS'complete_sent'
p107
I00
sS'source'
p108
I1
sS'start_sent'
p109
I00
sS'tier'
p110
I2
sS'updating'
p111
I00
sa(dp112
S'send_stats'
p113
I01
sS'fails'
p114
I0
sS'verified'
p115
I00
sS'url'
p116
S'udp://tracker.istole.it:80/announce'
p117
sS'fail_limit'
p118
I0
sS'complete_sent'
p119
I00
sS'source'
p120
I1
sS'start_sent'
p121
I00
sS'tier'
p122
I3
sS'updating'
p123
I00
sasg44
Nsg45
I00
sg46
F2
sg47
I01
sbasb.